target datalayout = "e-m:e-p270:32:32-p271:32:32-p272:64:64-i64:64-i128:128-f80:128-n8:16:32:64-S128"
target triple = "x86_64-unknown-linux-gnu"

%"class.OpenImageIO_v2_6_0::pvt::LoggedTimer" = type <{ %"class.OpenImageIO_v2_6_0::Timer", %"class.std::__cxx11::basic_string", i32, [4 x i8] }>
%"class.OpenImageIO_v2_6_0::Timer" = type { i8, i8, i64, i64, ptr }
%"class.std::__cxx11::basic_string" = type { %"struct.std::__cxx11::basic_string<char>::_Alloc_hider", i64, %union.anon.2 }
%"struct.std::__cxx11::basic_string<char>::_Alloc_hider" = type { ptr }
%union.anon.2 = type { i64, [8 x i8] }
%"class.OpenImageIO_v2_6_0::basic_string_view" = type { ptr, i64 }
%"struct.OpenImageIO_v2_6_0::ROI" = type { i32, i32, i32, i32, i32, i32, i32, i32 }
%struct.timespec = type { i64, i64 }
%"class.std::basic_string_view" = type { i64, ptr }

@.str.6 = private unnamed_addr constant [15 x i8] c"IBA::to_OpenCV\00", align 1
@.str.7 = private unnamed_addr constant [63 x i8] c"to_OpenCV() not supported -- no OpenCV support at compile time\00", align 1
@_ZN18OpenImageIO_v2_6_03pvt14oiio_log_timesE = external global i32, align 4

; Function Attrs: mustprogress nounwind uwtable
define linkonce_odr void @_ZNSt17basic_string_viewIcSt11char_traitsIcEEC2EPKcm(ptr noundef nonnull align 8 dereferenceable(16) %this, ptr noundef %__str, i64 noundef %__len) unnamed_addr #4 comdat align 2 {
entry:
  %this.addr = alloca ptr, align 8
  %__str.addr = alloca ptr, align 8
  %__len.addr = alloca i64, align 8
  store ptr %this, ptr %this.addr, align 8
  store ptr %__str, ptr %__str.addr, align 8
  store i64 %__len, ptr %__len.addr, align 8
  %this1 = load ptr, ptr %this.addr, align 8
  %_M_len = getelementptr inbounds %"class.std::basic_string_view", ptr %this1, i32 0, i32 0
  %0 = load i64, ptr %__len.addr, align 8
  store i64 %0, ptr %_M_len, align 8
  %_M_str = getelementptr inbounds %"class.std::basic_string_view", ptr %this1, i32 0, i32 1
  %1 = load ptr, ptr %__str.addr, align 8
  store ptr %1, ptr %_M_str, align 8
  ret void
}

; Function Attrs: mustprogress nounwind uwtable
define linkonce_odr hidden noundef i64 @_ZNK18OpenImageIO_v2_6_017basic_string_viewIcSt11char_traitsIcEE4sizeEv(ptr noundef nonnull align 8 dereferenceable(16) %this) #4 comdat align 2 {
entry:
  %this.addr = alloca ptr, align 8
  store ptr %this, ptr %this.addr, align 8
  %this1 = load ptr, ptr %this.addr, align 8
  %m_len = getelementptr inbounds %"class.OpenImageIO_v2_6_0::basic_string_view", ptr %this1, i32 0, i32 1
  %0 = load i64, ptr %m_len, align 8
  ret i64 %0
}

; Function Attrs: mustprogress nounwind uwtable
define linkonce_odr hidden noundef ptr @_ZNK18OpenImageIO_v2_6_017basic_string_viewIcSt11char_traitsIcEE4dataEv(ptr noundef nonnull align 8 dereferenceable(16) %this) #4 comdat align 2 {
entry:
  %this.addr = alloca ptr, align 8
  store ptr %this, ptr %this.addr, align 8
  %this1 = load ptr, ptr %this.addr, align 8
  %m_chars = getelementptr inbounds %"class.OpenImageIO_v2_6_0::basic_string_view", ptr %this1, i32 0, i32 0
  %0 = load ptr, ptr %m_chars, align 8
  ret ptr %0
}

; Function Attrs: mustprogress nounwind uwtable
define linkonce_odr noundef i64 @_ZNKSt17basic_string_viewIcSt11char_traitsIcEE4sizeEv(ptr noundef nonnull align 8 dereferenceable(16) %this) #4 comdat align 2 {
entry:
  %this.addr = alloca ptr, align 8
  store ptr %this, ptr %this.addr, align 8
  %this1 = load ptr, ptr %this.addr, align 8
  %_M_len = getelementptr inbounds %"class.std::basic_string_view", ptr %this1, i32 0, i32 0
  %0 = load i64, ptr %_M_len, align 8
  ret i64 %0
}

; Function Attrs: mustprogress nounwind uwtable
define linkonce_odr noundef ptr @_ZNKSt17basic_string_viewIcSt11char_traitsIcEE4dataEv(ptr noundef nonnull align 8 dereferenceable(16) %this) #4 comdat align 2 {
entry:
  %this.addr = alloca ptr, align 8
  store ptr %this, ptr %this.addr, align 8
  %this1 = load ptr, ptr %this.addr, align 8
  %_M_str = getelementptr inbounds %"class.std::basic_string_view", ptr %this1, i32 0, i32 1
  %0 = load ptr, ptr %_M_str, align 8
  ret ptr %0
}

; Function Attrs: mustprogress nounwind uwtable
define linkonce_odr hidden { i64, ptr } @_ZNK18OpenImageIO_v2_6_017basic_string_viewIcSt11char_traitsIcEEcvSt17basic_string_viewIcS2_EEv(ptr noundef nonnull align 8 dereferenceable(16) %this) #4 comdat align 2 {
entry:
  %retval = alloca %"class.std::basic_string_view", align 8
  %this.addr = alloca ptr, align 8
  store ptr %this, ptr %this.addr, align 8
  %this1 = load ptr, ptr %this.addr, align 8
  %call = call noundef ptr @_ZNK18OpenImageIO_v2_6_017basic_string_viewIcSt11char_traitsIcEE4dataEv(ptr noundef nonnull align 8 dereferenceable(16) %this1) #3
  %call2 = call noundef i64 @_ZNK18OpenImageIO_v2_6_017basic_string_viewIcSt11char_traitsIcEE4sizeEv(ptr noundef nonnull align 8 dereferenceable(16) %this1) #3
  call void @_ZNSt17basic_string_viewIcSt11char_traitsIcEEC2EPKcm(ptr noundef nonnull align 8 dereferenceable(16) %retval, ptr noundef %call, i64 noundef %call2) #3
  %0 = load { i64, ptr }, ptr %retval, align 8
  ret { i64, ptr } %0
}

; Function Attrs: mustprogress nounwind uwtable
define linkonce_odr noundef i64 @_ZNK18OpenImageIO_v2_6_05Timer3nowEv(ptr noundef nonnull align 8 dereferenceable(32) %this) #4 comdat align 2 {
entry:
  %this.addr = alloca ptr, align 8
  %t = alloca %struct.timespec, align 8
  store ptr %this, ptr %this.addr, align 8
  %call = call i32 @clock_gettime(i32 noundef 1, ptr noundef %t) #3
  %tv_sec = getelementptr inbounds %struct.timespec, ptr %t, i32 0, i32 0
  %0 = load i64, ptr %tv_sec, align 8
  %mul = mul nsw i64 %0, 1000000000
  %tv_nsec = getelementptr inbounds %struct.timespec, ptr %t, i32 0, i32 1
  %1 = load i64, ptr %tv_nsec, align 8
  %add = add nsw i64 %mul, %1
  ret i64 %add
}

; Function Attrs: mustprogress uwtable
define linkonce_odr hidden noundef nonnull align 8 dereferenceable(32) ptr @_ZNSt7__cxx1112basic_stringIcSt11char_traitsIcESaIcEE6assignIN18OpenImageIO_v2_6_017basic_string_viewIcS2_EEEENSt9enable_ifIXsr6__and_ISt14is_convertibleIRKT_St17basic_string_viewIcS2_EESt6__not_ISA_IPSC_PKS4_EESH_ISA_ISD_PKcEEEE5valueERS4_E4typeESD_(ptr noundef nonnull align 8 dereferenceable(32) %this, ptr noundef nonnull align 8 dereferenceable(16) %__svt) #6 comdat align 2 {
entry:
  %this.addr = alloca ptr, align 8
  %__svt.addr = alloca ptr, align 8
  %__sv = alloca %"class.std::basic_string_view", align 8
  store ptr %this, ptr %this.addr, align 8
  store ptr %__svt, ptr %__svt.addr, align 8
  %this1 = load ptr, ptr %this.addr, align 8
  %0 = load ptr, ptr %__svt.addr, align 8
  %call = call { i64, ptr } @_ZNK18OpenImageIO_v2_6_017basic_string_viewIcSt11char_traitsIcEEcvSt17basic_string_viewIcS2_EEv(ptr noundef nonnull align 8 dereferenceable(16) %0)
  %1 = getelementptr inbounds { i64, ptr }, ptr %__sv, i32 0, i32 0
  %2 = extractvalue { i64, ptr } %call, 0
  store i64 %2, ptr %1, align 8
  %3 = getelementptr inbounds { i64, ptr }, ptr %__sv, i32 0, i32 1
  %4 = extractvalue { i64, ptr } %call, 1
  store ptr %4, ptr %3, align 8
  %call2 = call noundef ptr @_ZNKSt17basic_string_viewIcSt11char_traitsIcEE4dataEv(ptr noundef nonnull align 8 dereferenceable(16) %__sv) #3
  %call3 = call noundef i64 @_ZNKSt17basic_string_viewIcSt11char_traitsIcEE4sizeEv(ptr noundef nonnull align 8 dereferenceable(16) %__sv) #3
  %call4 = call noundef nonnull align 8 dereferenceable(32) ptr @_ZNSt7__cxx1112basic_stringIcSt11char_traitsIcESaIcEE6assignEPKcm(ptr noundef nonnull align 8 dereferenceable(32) %this1, ptr noundef %call2, i64 noundef %call3)
  ret ptr %call4
}

; Function Attrs: mustprogress uwtable
define linkonce_odr void @_ZN18OpenImageIO_v2_6_05Timer5startEv(ptr noundef nonnull align 8 dereferenceable(32) %this) #6 comdat align 2 {
entry:
  %this.addr = alloca ptr, align 8
  store ptr %this, ptr %this.addr, align 8
  %this1 = load ptr, ptr %this.addr, align 8
  %m_ticking = getelementptr inbounds %"class.OpenImageIO_v2_6_0::Timer", ptr %this1, i32 0, i32 0
  %0 = load i8, ptr %m_ticking, align 8
  %tobool = trunc i8 %0 to i1
  br i1 %tobool, label %if.end, label %if.then

if.then:                                          ; preds = %entry
  %call = call noundef i64 @_ZNK18OpenImageIO_v2_6_05Timer3nowEv(ptr noundef nonnull align 8 dereferenceable(32) %this1)
  %m_starttime = getelementptr inbounds %"class.OpenImageIO_v2_6_0::Timer", ptr %this1, i32 0, i32 2
  store i64 %call, ptr %m_starttime, align 8
  %m_ticking2 = getelementptr inbounds %"class.OpenImageIO_v2_6_0::Timer", ptr %this1, i32 0, i32 0
  store i8 1, ptr %m_ticking2, align 8
  br label %if.end

if.end:                                           ; preds = %if.then, %entry
  ret void
}

; Function Attrs: mustprogress nounwind uwtable
define linkonce_odr noundef i64 @_ZNSt11char_traitsIcE6lengthEPKc(ptr noundef %__s) #4 comdat align 2 {
entry:
  %__s.addr = alloca ptr, align 8
  store ptr %__s, ptr %__s.addr, align 8
  %0 = load ptr, ptr %__s.addr, align 8
  %call = call i64 @strlen(ptr noundef %0) #3
  ret i64 %call
}

; Function Attrs: mustprogress uwtable
define linkonce_odr hidden noundef nonnull align 8 dereferenceable(32) ptr @_ZNSt7__cxx1112basic_stringIcSt11char_traitsIcESaIcEEaSIN18OpenImageIO_v2_6_017basic_string_viewIcS2_EEEENSt9enable_ifIXsr6__and_ISt14is_convertibleIRKT_St17basic_string_viewIcS2_EESt6__not_ISA_IPSC_PKS4_EESH_ISA_ISD_PKcEEEE5valueERS4_E4typeESD_(ptr noundef nonnull align 8 dereferenceable(32) %this, ptr noundef nonnull align 8 dereferenceable(16) %__svt) #6 comdat align 2 {
entry:
  %this.addr = alloca ptr, align 8
  %__svt.addr = alloca ptr, align 8
  store ptr %this, ptr %this.addr, align 8
  store ptr %__svt, ptr %__svt.addr, align 8
  %this1 = load ptr, ptr %this.addr, align 8
  %0 = load ptr, ptr %__svt.addr, align 8
  %call = call noundef nonnull align 8 dereferenceable(32) ptr @_ZNSt7__cxx1112basic_stringIcSt11char_traitsIcESaIcEE6assignIN18OpenImageIO_v2_6_017basic_string_viewIcS2_EEEENSt9enable_ifIXsr6__and_ISt14is_convertibleIRKT_St17basic_string_viewIcS2_EESt6__not_ISA_IPSC_PKS4_EESH_ISA_ISD_PKcEEEE5valueERS4_E4typeESD_(ptr noundef nonnull align 8 dereferenceable(32) %this1, ptr noundef nonnull align 8 dereferenceable(16) %0)
  ret ptr %call
}

; Function Attrs: mustprogress uwtable
define linkonce_odr void @_ZN18OpenImageIO_v2_6_05TimerC2Eb(ptr noundef nonnull align 8 dereferenceable(32) %this, i1 noundef zeroext %startnow) unnamed_addr #6 comdat align 2 {
entry:
  %this.addr = alloca ptr, align 8
  %startnow.addr = alloca i8, align 1
  store ptr %this, ptr %this.addr, align 8
  %frombool = zext i1 %startnow to i8
  store i8 %frombool, ptr %startnow.addr, align 1
  %this1 = load ptr, ptr %this.addr, align 8
  %m_ticking = getelementptr inbounds %"class.OpenImageIO_v2_6_0::Timer", ptr %this1, i32 0, i32 0
  store i8 0, ptr %m_ticking, align 8
  %m_printdtr = getelementptr inbounds %"class.OpenImageIO_v2_6_0::Timer", ptr %this1, i32 0, i32 1
  store i8 0, ptr %m_printdtr, align 1
  %m_starttime = getelementptr inbounds %"class.OpenImageIO_v2_6_0::Timer", ptr %this1, i32 0, i32 2
  store i64 0, ptr %m_starttime, align 8
  %m_elapsed_ticks = getelementptr inbounds %"class.OpenImageIO_v2_6_0::Timer", ptr %this1, i32 0, i32 3
  store i64 0, ptr %m_elapsed_ticks, align 8
  %m_name = getelementptr inbounds %"class.OpenImageIO_v2_6_0::Timer", ptr %this1, i32 0, i32 4
  store ptr null, ptr %m_name, align 8
  %0 = load i8, ptr %startnow.addr, align 1
  %tobool = trunc i8 %0 to i1
  br i1 %tobool, label %if.then, label %if.end

if.then:                                          ; preds = %entry
  call void @_ZN18OpenImageIO_v2_6_05Timer5startEv(ptr noundef nonnull align 8 dereferenceable(32) %this1)
  br label %if.end

if.end:                                           ; preds = %if.then, %entry
  ret void
}

; Function Attrs: noreturn nounwind uwtable
define linkonce_odr hidden void @__clang_call_terminate(ptr noundef %0) #7 comdat {
  %2 = call ptr @__cxa_begin_catch(ptr %0) #3
  call void @_ZSt9terminatev() #17
  unreachable
}

; Function Attrs: mustprogress uwtable
define linkonce_odr hidden noundef i64 @_ZN18OpenImageIO_v2_6_017basic_string_viewIcSt11char_traitsIcEE8cestrlenEPKc(ptr noundef %chars) #6 comdat align 2 {
entry:
  %chars.addr = alloca ptr, align 8
  store ptr %chars, ptr %chars.addr, align 8
  %0 = load ptr, ptr %chars.addr, align 8
  %call = call noundef i64 @_ZNSt11char_traitsIcE6lengthEPKc(ptr noundef %0)
  ret i64 %call
}

; Function Attrs: mustprogress uwtable
define linkonce_odr hidden void @_ZN18OpenImageIO_v2_6_03pvt11LoggedTimerC2ENS_17basic_string_viewIcSt11char_traitsIcEEE(ptr noundef nonnull align 8 dereferenceable(68) %this, ptr noundef %name) unnamed_addr #6 comdat align 2 personality ptr @__gxx_personality_v0 {
entry:
  %this.addr = alloca ptr, align 8
  %name.indirect_addr = alloca ptr, align 8
  %exn.slot = alloca ptr, align 8
  %ehselector.slot = alloca i32, align 4
  store ptr %this, ptr %this.addr, align 8
  store ptr %name, ptr %name.indirect_addr, align 8
  %this1 = load ptr, ptr %this.addr, align 8
  %m_timer = getelementptr inbounds %"class.OpenImageIO_v2_6_0::pvt::LoggedTimer", ptr %this1, i32 0, i32 0
  %0 = load i32, ptr @_ZN18OpenImageIO_v2_6_03pvt14oiio_log_timesE, align 4
  %tobool = icmp ne i32 %0, 0
  call void @_ZN18OpenImageIO_v2_6_05TimerC2Eb(ptr noundef nonnull align 8 dereferenceable(32) %m_timer, i1 noundef zeroext %tobool)
  %m_name = getelementptr inbounds %"class.OpenImageIO_v2_6_0::pvt::LoggedTimer", ptr %this1, i32 0, i32 1
  call void @_ZNSt7__cxx1112basic_stringIcSt11char_traitsIcESaIcEEC1Ev(ptr noundef nonnull align 8 dereferenceable(32) %m_name) #3
  %m_count = getelementptr inbounds %"class.OpenImageIO_v2_6_0::pvt::LoggedTimer", ptr %this1, i32 0, i32 2
  store i32 1, ptr %m_count, align 8
  %1 = load i32, ptr @_ZN18OpenImageIO_v2_6_03pvt14oiio_log_timesE, align 4
  %tobool2 = icmp ne i32 %1, 0
  br i1 %tobool2, label %if.then, label %if.end

if.then:                                          ; preds = %entry
  %m_name3 = getelementptr inbounds %"class.OpenImageIO_v2_6_0::pvt::LoggedTimer", ptr %this1, i32 0, i32 1
  %call = invoke noundef nonnull align 8 dereferenceable(32) ptr @_ZNSt7__cxx1112basic_stringIcSt11char_traitsIcESaIcEEaSIN18OpenImageIO_v2_6_017basic_string_viewIcS2_EEEENSt9enable_ifIXsr6__and_ISt14is_convertibleIRKT_St17basic_string_viewIcS2_EESt6__not_ISA_IPSC_PKS4_EESH_ISA_ISD_PKcEEEE5valueERS4_E4typeESD_(ptr noundef nonnull align 8 dereferenceable(32) %m_name3, ptr noundef nonnull align 8 dereferenceable(16) %name)
          to label %invoke.cont unwind label %lpad

invoke.cont:                                      ; preds = %if.then
  br label %if.end

lpad:                                             ; preds = %if.then
  %2 = landingpad { ptr, i32 }
          cleanup
  %3 = extractvalue { ptr, i32 } %2, 0
  store ptr %3, ptr %exn.slot, align 8
  %4 = extractvalue { ptr, i32 } %2, 1
  store i32 %4, ptr %ehselector.slot, align 4
  call void @_ZNSt7__cxx1112basic_stringIcSt11char_traitsIcESaIcEED1Ev(ptr noundef nonnull align 8 dereferenceable(32) %m_name) #3
  call void @_ZN18OpenImageIO_v2_6_05TimerD2Ev(ptr noundef nonnull align 8 dereferenceable(32) %m_timer) #3
  br label %eh.resume

if.end:                                           ; preds = %invoke.cont, %entry
  ret void

eh.resume:                                        ; preds = %lpad
  %exn = load ptr, ptr %exn.slot, align 8
  %sel = load i32, ptr %ehselector.slot, align 4
  %lpad.val = insertvalue { ptr, i32 } poison, ptr %exn, 0
  %lpad.val4 = insertvalue { ptr, i32 } %lpad.val, i32 %sel, 1
  resume { ptr, i32 } %lpad.val4
}

; Function Attrs: mustprogress nounwind uwtable
define linkonce_odr hidden void @_ZN18OpenImageIO_v2_6_017basic_string_viewIcSt11char_traitsIcEEC2EPKc(ptr noundef nonnull align 8 dereferenceable(16) %this, ptr noundef %chars) unnamed_addr #4 comdat align 2 personality ptr @__gxx_personality_v0 {
entry:
  %this.addr = alloca ptr, align 8
  %chars.addr = alloca ptr, align 8
  store ptr %this, ptr %this.addr, align 8
  store ptr %chars, ptr %chars.addr, align 8
  %this1 = load ptr, ptr %this.addr, align 8
  %m_chars = getelementptr inbounds %"class.OpenImageIO_v2_6_0::basic_string_view", ptr %this1, i32 0, i32 0
  %0 = load ptr, ptr %chars.addr, align 8
  store ptr %0, ptr %m_chars, align 8
  %m_len = getelementptr inbounds %"class.OpenImageIO_v2_6_0::basic_string_view", ptr %this1, i32 0, i32 1
  %1 = load ptr, ptr %chars.addr, align 8
  %tobool = icmp ne ptr %1, null
  br i1 %tobool, label %cond.true, label %cond.false

cond.true:                                        ; preds = %entry
  %2 = load ptr, ptr %chars.addr, align 8
  %call = invoke noundef i64 @_ZN18OpenImageIO_v2_6_017basic_string_viewIcSt11char_traitsIcEE8cestrlenEPKc(ptr noundef %2)
          to label %invoke.cont unwind label %terminate.lpad

invoke.cont:                                      ; preds = %cond.true
  br label %cond.end

cond.false:                                       ; preds = %entry
  br label %cond.end

cond.end:                                         ; preds = %cond.false, %invoke.cont
  %cond = phi i64 [ %call, %invoke.cont ], [ 0, %cond.false ]
  store i64 %cond, ptr %m_len, align 8
  ret void

terminate.lpad:                                   ; preds = %cond.true
  %3 = landingpad { ptr, i32 }
          catch ptr null
  %4 = extractvalue { ptr, i32 } %3, 0
  call void @__clang_call_terminate(ptr %4) #17
  unreachable
}

; Function Attrs: mustprogress uwtable
define noundef zeroext i1 @_ZN18OpenImageIO_v2_6_012ImageBufAlgo9to_OpenCVERN2cv3MatERKNS_8ImageBufENS_3ROIEi(ptr noundef nonnull align 1 %dst, ptr noundef nonnull align 8 dereferenceable(16) %src, ptr noundef byval(%"struct.OpenImageIO_v2_6_0::ROI") align 8 %roi, i32 noundef %nthreads) #6 personality ptr @__gxx_personality_v0 {
entry:
  %dst.addr = alloca ptr, align 8
  %src.addr = alloca ptr, align 8
  %nthreads.addr = alloca i32, align 4
  %logtime = alloca %"class.OpenImageIO_v2_6_0::pvt::LoggedTimer", align 8
  %agg.tmp = alloca %"class.OpenImageIO_v2_6_0::basic_string_view", align 8
  %exn.slot = alloca ptr, align 8
  %ehselector.slot = alloca i32, align 4
  store ptr %dst, ptr %dst.addr, align 8
  store ptr %src, ptr %src.addr, align 8
  store i32 %nthreads, ptr %nthreads.addr, align 4
  call void @_ZN18OpenImageIO_v2_6_017basic_string_viewIcSt11char_traitsIcEEC2EPKc(ptr noundef nonnull align 8 dereferenceable(16) %agg.tmp, ptr noundef @.str.6) #3
  call void @_ZN18OpenImageIO_v2_6_03pvt11LoggedTimerC2ENS_17basic_string_viewIcSt11char_traitsIcEEE(ptr noundef nonnull align 8 dereferenceable(68) %logtime, ptr noundef %agg.tmp)
  invoke void @_ZN18OpenImageIO_v2_6_03pvt8errorfmtIJEEEvPKcDpRKT_(ptr noundef @.str.7)
          to label %invoke.cont unwind label %lpad

invoke.cont:                                      ; preds = %entry
  call void @_ZN18OpenImageIO_v2_6_03pvt11LoggedTimerD2Ev(ptr noundef nonnull align 8 dereferenceable(68) %logtime) #3
  ret i1 false

lpad:                                             ; preds = %entry
  %0 = landingpad { ptr, i32 }
          cleanup
  %1 = extractvalue { ptr, i32 } %0, 0
  store ptr %1, ptr %exn.slot, align 8
  %2 = extractvalue { ptr, i32 } %0, 1
  store i32 %2, ptr %ehselector.slot, align 4
  call void @_ZN18OpenImageIO_v2_6_03pvt11LoggedTimerD2Ev(ptr noundef nonnull align 8 dereferenceable(68) %logtime) #3
  br label %eh.resume

eh.resume:                                        ; preds = %lpad
  %exn = load ptr, ptr %exn.slot, align 8
  %sel = load i32, ptr %ehselector.slot, align 4
  %lpad.val = insertvalue { ptr, i32 } poison, ptr %exn, 0
  %lpad.val1 = insertvalue { ptr, i32 } %lpad.val, i32 %sel, 1
  resume { ptr, i32 } %lpad.val1
}